target datalayout = "e-m:e-p270:32:32-p271:32:32-p272:64:64-i64:64-i128:128-f80:128-n8:16:32:64-S128"
target triple = "x86_64-pc-linux-gnu"

%struct.tdefl_compressor = type { ptr, ptr, i32, [2 x i32], i32, i32, i32, i32, i32, ptr, ptr, ptr, ptr, i32, i32, i32, i32, i32, i32, i32, i32, i32, i32, i32, i32, i32, i32, ptr, ptr, ptr, ptr, i32, ptr, i64, i64, [33025 x i8], [3 x [288 x i16]], [3 x [288 x i16]], [3 x [288 x i8]], [65536 x i8], [32768 x i16], [32768 x i16], [85196 x i8] }
%struct.mz_zip_archive = type { i64, i64, i32, i32, i32, i32, i64, ptr, ptr, ptr, ptr, ptr, ptr, ptr, ptr, ptr }
%struct.mz_zip_writer_add_state = type { ptr, i64, i64 }
%struct.zip_t = type { %struct.mz_zip_archive, i32, %struct.zip_entry_t }
%struct.zip_entry_t = type { i64, ptr, i64, i64, i32, i64, [30 x i8], i64, i16, %struct.mz_zip_writer_add_state, %struct.tdefl_compressor, i32, i64 }

; Function Attrs: nounwind uwtable
define i64 @zip_entry_dir_offset(ptr noundef %0) #0 {
  %2 = alloca ptr, align 8
  store ptr %0, ptr %2, align 8
  %3 = load ptr, ptr %2, align 8
  %4 = icmp ne ptr %3, null
  br i1 %4, label %5, label %10

5:                                                ; preds = %1
  %6 = load ptr, ptr %2, align 8
  %7 = getelementptr inbounds nuw %struct.zip_t, ptr %6, i32 0, i32 2
  %8 = getelementptr inbounds nuw %struct.zip_entry_t, ptr %7, i32 0, i32 5
  %9 = load i64, ptr %8, align 8
  br label %11

10:                                               ; preds = %1
  br label %11

11:                                               ; preds = %10, %5
  %12 = phi i64 [ %9, %5 ], [ 0, %10 ]
  ret i64 %12
}